target datalayout = "e-m:e-p270:32:32-p271:32:32-p272:64:64-i64:64-i128:128-f80:128-n8:16:32:64-S128"
target triple = "x86_64-pc-linux-gnu"

%struct._object = type { %union.anon, ptr }
%union.anon = type { i64 }
%struct.anon = type { i32, i32 }

; Function Attrs: alwaysinline nounwind uwtable
define internal void @Py_INCREF(ptr noundef %0) #6 {
  %2 = alloca ptr, align 8
  %3 = alloca i32, align 4
  %4 = alloca i32, align 4
  store ptr %0, ptr %2, align 8, !tbaa !27
  call void @llvm.lifetime.start.p0(i64 4, ptr %3) #10
  %5 = load ptr, ptr %2, align 8, !tbaa !27
  %6 = getelementptr inbounds nuw %struct._object, ptr %5, i32 0, i32 0
  %7 = getelementptr inbounds nuw %struct.anon, ptr %6, i32 0, i32 0
  %8 = load i32, ptr %7, align 8, !tbaa !38
  store i32 %8, ptr %3, align 4, !tbaa !28
  %9 = load i32, ptr %3, align 4, !tbaa !28
  %10 = icmp slt i32 %9, 0
  br i1 %10, label %11, label %12

11:                                               ; preds = %1
  store i32 1, ptr %4, align 4
  br label %18

12:                                               ; preds = %1
  %13 = load i32, ptr %3, align 4, !tbaa !28
  %14 = add i32 %13, 1
  %15 = load ptr, ptr %2, align 8, !tbaa !27
  %16 = getelementptr inbounds nuw %struct._object, ptr %15, i32 0, i32 0
  %17 = getelementptr inbounds nuw %struct.anon, ptr %16, i32 0, i32 0
  store i32 %14, ptr %17, align 8, !tbaa !38
  store i32 0, ptr %4, align 4
  br label %18

18:                                               ; preds = %12, %11
  call void @llvm.lifetime.end.p0(i64 4, ptr %3) #10
  %19 = load i32, ptr %4, align 4
  switch i32 %19, label %21 [
    i32 0, label %20
    i32 1, label %20
  ]

20:                                               ; preds = %18, %18
  ret void

21:                                               ; preds = %18
  unreachable
}

; Function Attrs: inlinehint nounwind uwtable
define internal ptr @_Py_NewRef(ptr noundef %0) #2 {
  %2 = alloca ptr, align 8
  store ptr %0, ptr %2, align 8, !tbaa !27
  %3 = load ptr, ptr %2, align 8, !tbaa !27
  call void @Py_INCREF(ptr noundef %3)
  %4 = load ptr, ptr %2, align 8, !tbaa !27
  ret ptr %4
}

; Function Attrs: nounwind uwtable
define dso_local i32 @_PyDict_GetItemRef_KnownHash_LockHeld(ptr noundef %0, ptr noundef %1, i64 noundef %2, ptr noundef %3) #0 {
  %5 = alloca i32, align 4
  %6 = alloca ptr, align 8
  %7 = alloca ptr, align 8
  %8 = alloca i64, align 8
  %9 = alloca ptr, align 8
  %10 = alloca ptr, align 8
  %11 = alloca i64, align 8
  %12 = alloca i32, align 4
  store ptr %0, ptr %6, align 8, !tbaa !29
  store ptr %1, ptr %7, align 8, !tbaa !27
  store i64 %2, ptr %8, align 8, !tbaa !39
  store ptr %3, ptr %9, align 8, !tbaa !77
  call void @llvm.lifetime.start.p0(i64 8, ptr %10) #10
  call void @llvm.lifetime.start.p0(i64 8, ptr %11) #10
  %13 = load ptr, ptr %6, align 8, !tbaa !29
  %14 = load ptr, ptr %7, align 8, !tbaa !27
  %15 = load i64, ptr %8, align 8, !tbaa !39
  %16 = call i64 @_Py_dict_lookup(ptr noundef %13, ptr noundef %14, i64 noundef %15, ptr noundef %10)
  store i64 %16, ptr %11, align 8, !tbaa !39
  %17 = load i64, ptr %11, align 8, !tbaa !39
  %18 = icmp eq i64 %17, -3
  br i1 %18, label %19, label %21

19:                                               ; preds = %4
  %20 = load ptr, ptr %9, align 8, !tbaa !77
  store ptr null, ptr %20, align 8, !tbaa !27
  store i32 -1, ptr %5, align 4
  store i32 1, ptr %12, align 4
  br label %30

21:                                               ; preds = %4
  %22 = load ptr, ptr %10, align 8, !tbaa !27
  %23 = icmp eq ptr %22, null
  br i1 %23, label %24, label %26

24:                                               ; preds = %21
  %25 = load ptr, ptr %9, align 8, !tbaa !77
  store ptr null, ptr %25, align 8, !tbaa !27
  store i32 0, ptr %5, align 4
  store i32 1, ptr %12, align 4
  br label %30

26:                                               ; preds = %21
  %27 = load ptr, ptr %10, align 8, !tbaa !27
  %28 = call ptr @_Py_NewRef(ptr noundef %27)
  %29 = load ptr, ptr %9, align 8, !tbaa !77
  store ptr %28, ptr %29, align 8, !tbaa !27
  store i32 1, ptr %5, align 4
  store i32 1, ptr %12, align 4
  br label %30

30:                                               ; preds = %26, %24, %19
  call void @llvm.lifetime.end.p0(i64 8, ptr %11) #10
  call void @llvm.lifetime.end.p0(i64 8, ptr %10) #10
  %31 = load i32, ptr %5, align 4
  ret i32 %31
}