; Function Attrs: nounwind uwtable
define dso_local range(i32 -1, 2) i32 @_PyDict_GetItemRef_KnownHash_LockHeld(ptr noundef readonly captures(none) %0, ptr noundef %1, i64 noundef %2, ptr noundef writeonly captures(none) initializes((0, 8)) %3) local_unnamed_addr #0 {
  %5 = alloca ptr, align 8
  call void @llvm.lifetime.start.p0(i64 8, ptr nonnull %5) #23
  %6 = call i64 @_Py_dict_lookup(ptr noundef %0, ptr noundef %1, i64 noundef %2, ptr noundef nonnull %5)
  %7 = icmp eq i64 %6, -3
  br i1 %7, label %_Py_NewRef.exit, label %8

8:                                                ; preds = %4
  %9 = load ptr, ptr %5, align 8, !tbaa !64
  %10 = icmp eq ptr %9, null
  br i1 %10, label %_Py_NewRef.exit, label %11

11:                                               ; preds = %8
  %12 = load i32, ptr %9, align 8, !tbaa !41
  %13 = icmp slt i32 %12, 0
  br i1 %13, label %_Py_NewRef.exit, label %14

14:                                               ; preds = %11
  %15 = add nuw i32 %12, 1
  store i32 %15, ptr %9, align 8, !tbaa !41
  br label %_Py_NewRef.exit

_Py_NewRef.exit:                                  ; preds = %14, %11, %8, %4
  %.sink = phi ptr [ null, %4 ], [ null, %8 ], [ %9, %11 ], [ %9, %14 ]
  %.0 = phi i32 [ -1, %4 ], [ 0, %8 ], [ 1, %11 ], [ 1, %14 ]
  store ptr %.sink, ptr %3, align 8, !tbaa !64
  call void @llvm.lifetime.end.p0(i64 8, ptr nonnull %5) #23
  ret i32 %.0
}